target datalayout = "e-m:e-p270:32:32-p271:32:32-p272:64:64-i64:64-i128:128-f80:128-n8:16:32:64-S128"
target triple = "x86_64-pc-linux-gnu"

%struct.buf_writer_t = type { ptr, ptr, ptr, i64, i64, i8 }

; Function Attrs: nounwind uwtable
define internal void @buf_writer_assert(ptr noundef %0) #0 {
  %2 = alloca ptr, align 8
  store ptr %0, ptr %2, align 8, !tbaa !8
  br label %3

3:                                                ; preds = %1
  br label %4

4:                                                ; preds = %3
  br label %5

5:                                                ; preds = %4
  br label %6

6:                                                ; preds = %5
  %7 = load ptr, ptr %2, align 8, !tbaa !8
  %8 = getelementptr inbounds nuw %struct.buf_writer_t, ptr %7, i32 0, i32 2
  %9 = load ptr, ptr %8, align 8, !tbaa !17
  %10 = icmp ne ptr %9, null
  br i1 %10, label %11, label %14

11:                                               ; preds = %6
  br label %12

12:                                               ; preds = %11
  br label %13

13:                                               ; preds = %12
  br label %19

14:                                               ; preds = %6
  br label %15

15:                                               ; preds = %14
  br label %16

16:                                               ; preds = %15
  br label %17

17:                                               ; preds = %16
  br label %18

18:                                               ; preds = %17
  br label %19

19:                                               ; preds = %18, %13
  br label %20

20:                                               ; preds = %19
  br label %21

21:                                               ; preds = %20
  ret void
}

; Function Attrs: nounwind uwtable
define void @duckdb_je_buf_writer_flush(ptr noundef %0) #0 {
  %2 = alloca ptr, align 8
  store ptr %0, ptr %2, align 8, !tbaa !8
  %3 = load ptr, ptr %2, align 8, !tbaa !8
  call void @buf_writer_assert(ptr noundef %3)
  %4 = load ptr, ptr %2, align 8, !tbaa !8
  %5 = getelementptr inbounds nuw %struct.buf_writer_t, ptr %4, i32 0, i32 2
  %6 = load ptr, ptr %5, align 8, !tbaa !17
  %7 = icmp eq ptr %6, null
  br i1 %7, label %8, label %9

8:                                                ; preds = %1
  br label %29

9:                                                ; preds = %1
  %10 = load ptr, ptr %2, align 8, !tbaa !8
  %11 = getelementptr inbounds nuw %struct.buf_writer_t, ptr %10, i32 0, i32 2
  %12 = load ptr, ptr %11, align 8, !tbaa !17
  %13 = load ptr, ptr %2, align 8, !tbaa !8
  %14 = getelementptr inbounds nuw %struct.buf_writer_t, ptr %13, i32 0, i32 4
  %15 = load i64, ptr %14, align 8, !tbaa !20
  %16 = getelementptr inbounds nuw i8, ptr %12, i64 %15
  store i8 0, ptr %16, align 1, !tbaa !21
  %17 = load ptr, ptr %2, align 8, !tbaa !8
  %18 = getelementptr inbounds nuw %struct.buf_writer_t, ptr %17, i32 0, i32 0
  %19 = load ptr, ptr %18, align 8, !tbaa !13
  %20 = load ptr, ptr %2, align 8, !tbaa !8
  %21 = getelementptr inbounds nuw %struct.buf_writer_t, ptr %20, i32 0, i32 1
  %22 = load ptr, ptr %21, align 8, !tbaa !16
  %23 = load ptr, ptr %2, align 8, !tbaa !8
  %24 = getelementptr inbounds nuw %struct.buf_writer_t, ptr %23, i32 0, i32 2
  %25 = load ptr, ptr %24, align 8, !tbaa !17
  call void %19(ptr noundef %22, ptr noundef %25)
  %26 = load ptr, ptr %2, align 8, !tbaa !8
  %27 = getelementptr inbounds nuw %struct.buf_writer_t, ptr %26, i32 0, i32 4
  store i64 0, ptr %27, align 8, !tbaa !20
  %28 = load ptr, ptr %2, align 8, !tbaa !8
  call void @buf_writer_assert(ptr noundef %28)
  br label %29

29:                                               ; preds = %9, %8
  ret void
}